; Function Attrs: mustprogress uwtable
define dso_local void @_ZN6google8protobuf14ForkPipeRunner12CheckedWriteEiPKvm(ptr noundef nonnull align 8 dereferenceable(120) %this, i32 noundef %fd, ptr nocapture noundef readonly %buf, i64 noundef %len) local_unnamed_addr #3 align 2 personality ptr @__gxx_personality_v0 {
entry:
  %ref.tmp = alloca %"class.google::protobuf::internal::LogMessage", align 8
  %ref.tmp9 = alloca %"class.google::protobuf::internal::LogFinisher", align 1
  %call = tail call i64 @write(i32 noundef %fd, ptr noundef %buf, i64 noundef %len)
  %cmp.not = icmp eq i64 %call, %len
  br i1 %cmp.not, label %if.end, label %if.then

if.then:                                          ; preds = %entry
  call void @_ZN6google8protobuf8internal10LogMessageC1ENS0_8LogLevelEPKci(ptr noundef nonnull align 8 dereferenceable(56) %ref.tmp, i32 noundef 3, ptr noundef nonnull @.str.21, i32 noundef 338)
  %current_test_name_ = getelementptr inbounds i8, ptr %this, i64 88
  %call2 = invoke noundef nonnull align 8 dereferenceable(56) ptr @_ZN6google8protobuf8internal10LogMessagelsERKNSt7__cxx1112basic_stringIcSt11char_traitsIcESaIcEEE(ptr noundef nonnull align 8 dereferenceable(56) %ref.tmp, ptr noundef nonnull align 8 dereferenceable(32) %current_test_name_)
          to label %invoke.cont unwind label %lpad

invoke.cont:                                      ; preds = %if.then
  %call4 = invoke noundef nonnull align 8 dereferenceable(56) ptr @_ZN6google8protobuf8internal10LogMessagelsEPKc(ptr noundef nonnull align 8 dereferenceable(56) %call2, ptr noundef nonnull @.str.45)
          to label %invoke.cont3 unwind label %lpad

invoke.cont3:                                     ; preds = %invoke.cont
  %call5 = tail call ptr @__errno_location() #34
  %0 = load i32, ptr %call5, align 4
  %call6 = call ptr @strerror(i32 noundef %0) #30
  %call8 = invoke noundef nonnull align 8 dereferenceable(56) ptr @_ZN6google8protobuf8internal10LogMessagelsEPKc(ptr noundef nonnull align 8 dereferenceable(56) %call4, ptr noundef %call6)
          to label %invoke.cont7 unwind label %lpad

invoke.cont7:                                     ; preds = %invoke.cont3
  invoke void @_ZN6google8protobuf8internal11LogFinisheraSERNS1_10LogMessageE(ptr noundef nonnull align 1 dereferenceable(1) %ref.tmp9, ptr noundef nonnull align 8 dereferenceable(56) %call8)
          to label %invoke.cont10 unwind label %lpad

invoke.cont10:                                    ; preds = %invoke.cont7
  call void @_ZN6google8protobuf8internal10LogMessageD1Ev(ptr noundef nonnull align 8 dereferenceable(56) %ref.tmp) #30
  br label %if.end

lpad:                                             ; preds = %invoke.cont7, %invoke.cont3, %invoke.cont, %if.then
  %1 = landingpad { ptr, i32 }
          cleanup
  call void @_ZN6google8protobuf8internal10LogMessageD1Ev(ptr noundef nonnull align 8 dereferenceable(56) %ref.tmp) #30
  resume { ptr, i32 } %1

if.end:                                           ; preds = %invoke.cont10, %entry
  ret void
}